target datalayout = "e-m:e-p270:32:32-p271:32:32-p272:64:64-i64:64-i128:128-f80:128-n8:16:32:64-S128"
target triple = "x86_64-pc-linux-gnu"

%struct.SMgrRelationData = type { %struct.RelFileLocatorBackend, i32, [4 x i32], i32, [4 x i32], [4 x ptr], i32, %struct.dlist_node }
%struct.RelFileLocatorBackend = type { %struct.RelFileLocator, i32 }
%struct.RelFileLocator = type { i32, i32, i32 }
%struct.dlist_node = type { ptr, ptr }

@.str.19 = private unnamed_addr constant [6 x i8] c"%s.%u\00", align 1

; Function Attrs: nounwind uwtable
define internal ptr @_mdfd_segpath(ptr noundef %0, i32 noundef %1, i32 noundef %2) #0 {
  %4 = alloca ptr, align 8
  %5 = alloca i32, align 4
  %6 = alloca i32, align 4
  %7 = alloca ptr, align 8
  %8 = alloca ptr, align 8
  store ptr %0, ptr %4, align 8
  store i32 %1, ptr %5, align 4
  store i32 %2, ptr %6, align 4
  call void @llvm.lifetime.start.p0(i64 8, ptr %7) #10
  call void @llvm.lifetime.start.p0(i64 8, ptr %8) #10
  %9 = load ptr, ptr %4, align 8
  %10 = getelementptr inbounds nuw %struct.SMgrRelationData, ptr %9, i32 0, i32 0
  %11 = getelementptr inbounds nuw %struct.RelFileLocatorBackend, ptr %10, i32 0, i32 0
  %12 = getelementptr inbounds nuw %struct.RelFileLocator, ptr %11, i32 0, i32 1
  %13 = load i32, ptr %12, align 4
  %14 = load ptr, ptr %4, align 8
  %15 = getelementptr inbounds nuw %struct.SMgrRelationData, ptr %14, i32 0, i32 0
  %16 = getelementptr inbounds nuw %struct.RelFileLocatorBackend, ptr %15, i32 0, i32 0
  %17 = getelementptr inbounds nuw %struct.RelFileLocator, ptr %16, i32 0, i32 0
  %18 = load i32, ptr %17, align 8
  %19 = load ptr, ptr %4, align 8
  %20 = getelementptr inbounds nuw %struct.SMgrRelationData, ptr %19, i32 0, i32 0
  %21 = getelementptr inbounds nuw %struct.RelFileLocatorBackend, ptr %20, i32 0, i32 0
  %22 = getelementptr inbounds nuw %struct.RelFileLocator, ptr %21, i32 0, i32 2
  %23 = load i32, ptr %22, align 8
  %24 = load ptr, ptr %4, align 8
  %25 = getelementptr inbounds nuw %struct.SMgrRelationData, ptr %24, i32 0, i32 0
  %26 = getelementptr inbounds nuw %struct.RelFileLocatorBackend, ptr %25, i32 0, i32 1
  %27 = load i32, ptr %26, align 4
  %28 = load i32, ptr %5, align 4
  %29 = call ptr @GetRelationPath(i32 noundef %13, i32 noundef %18, i32 noundef %23, i32 noundef %27, i32 noundef %28)
  store ptr %29, ptr %7, align 8
  %30 = load i32, ptr %6, align 4
  %31 = icmp ugt i32 %30, 0
  br i1 %31, label %32, label %37

32:                                               ; preds = %3
  %33 = load ptr, ptr %7, align 8
  %34 = load i32, ptr %6, align 4
  %35 = call ptr (ptr, ...) @psprintf(ptr noundef @.str.19, ptr noundef %33, i32 noundef %34)
  store ptr %35, ptr %8, align 8
  %36 = load ptr, ptr %7, align 8
  call void @pfree(ptr noundef %36)
  br label %39

37:                                               ; preds = %3
  %38 = load ptr, ptr %7, align 8
  store ptr %38, ptr %8, align 8
  br label %39

39:                                               ; preds = %37, %32
  %40 = load ptr, ptr %8, align 8
  call void @llvm.lifetime.end.p0(i64 8, ptr %8) #10
  call void @llvm.lifetime.end.p0(i64 8, ptr %7) #10
  ret ptr %40
}