; Function Attrs: nounwind uwtable
define internal fastcc ptr @_mdfd_segpath(ptr noundef readonly captures(none) %0, i32 noundef %1, i32 noundef %2) unnamed_addr #0 {
  %4 = getelementptr inbounds nuw i8, ptr %0, i64 4
  %5 = load i32, ptr %4, align 4
  %6 = load i32, ptr %0, align 8
  %7 = getelementptr inbounds nuw i8, ptr %0, i64 8
  %8 = load i32, ptr %7, align 8
  %9 = getelementptr inbounds nuw i8, ptr %0, i64 12
  %10 = load i32, ptr %9, align 4
  %11 = tail call ptr @GetRelationPath(i32 noundef %5, i32 noundef %6, i32 noundef %8, i32 noundef %10, i32 noundef %1) #15
  %.not = icmp eq i32 %2, 0
  br i1 %.not, label %14, label %12

12:                                               ; preds = %3
  %13 = tail call ptr (ptr, ...) @psprintf(ptr noundef nonnull @.str.19, ptr noundef %11, i32 noundef %2) #15
  tail call void @pfree(ptr noundef %11) #15
  br label %14

14:                                               ; preds = %3, %12
  %.0 = phi ptr [ %13, %12 ], [ %11, %3 ]
  ret ptr %.0
}